target datalayout = "e-m:e-p270:32:32-p271:32:32-p272:64:64-i64:64-i128:128-f80:128-n8:16:32:64-S128"
target triple = "x86_64-pc-linux-gnu"

%struct.lzxd_stream = type { ptr, ptr, ptr, i64, i64, ptr, i32, i32, i32, i32, i32, i32, i32, i32, i32, i32, i32, i32, i32, i8, i8, i8, i8, i8, i32, ptr, ptr, ptr, ptr, ptr, i32, i32, i32, [84 x i8], [2640 x i8], [314 x i8], [72 x i8], [104 x i16], [9248 x i16], [4596 x i16], [144 x i16], i8, [32768 x i8] }

; Function Attrs: nounwind uwtable
define void @lzxd_set_output_length(ptr noundef %0, i64 noundef %1) #0 {
  %3 = alloca ptr, align 8
  %4 = alloca i64, align 8
  store ptr %0, ptr %3, align 8
  store i64 %1, ptr %4, align 8
  %5 = load ptr, ptr %3, align 8
  %6 = icmp ne ptr %5, null
  br i1 %6, label %7, label %14

7:                                                ; preds = %2
  %8 = load i64, ptr %4, align 8
  %9 = icmp sgt i64 %8, 0
  br i1 %9, label %10, label %14

10:                                               ; preds = %7
  %11 = load i64, ptr %4, align 8
  %12 = load ptr, ptr %3, align 8
  %13 = getelementptr inbounds %struct.lzxd_stream, ptr %12, i32 0, i32 4
  store i64 %11, ptr %13, align 8
  br label %14

14:                                               ; preds = %10, %7, %2
  ret void
}