; Function Attrs: mustprogress nofree norecurse nosync nounwind willreturn memory(argmem: write) uwtable
define void @lzxd_set_output_length(ptr noundef writeonly %0, i64 noundef %1) local_unnamed_addr #1 {
  %3 = icmp ne ptr %0, null
  %4 = icmp sgt i64 %1, 0
  %or.cond = and i1 %3, %4
  br i1 %or.cond, label %5, label %7

5:                                                ; preds = %2
  %6 = getelementptr inbounds i8, ptr %0, i64 32
  store i64 %1, ptr %6, align 8
  br label %7

7:                                                ; preds = %5, %2
  ret void
}